; Function Attrs: mustprogress uwtable
define noundef range(i64 -64, 6) i64 @_ZN11duckdb_zstd27ZSTD_initDStream_usingDDictEPNS_11ZSTD_DCtx_sEPKNS_12ZSTD_DDict_sE(ptr noundef captures(none) initializes((30176, 30180), (30236, 30240), (30316, 30320)) %0, ptr noundef %1) local_unnamed_addr #0 {
  %3 = getelementptr inbounds nuw i8, ptr %0, i64 30236
  store i32 0, ptr %3, align 4, !tbaa !129
  %4 = getelementptr inbounds nuw i8, ptr %0, i64 30316
  store i32 0, ptr %4, align 4, !tbaa !34
  %5 = getelementptr inbounds nuw i8, ptr %0, i64 30176
  store i32 1, ptr %5, align 8, !tbaa !36
  %6 = tail call noundef i64 @_ZN11duckdb_zstd18ZSTD_DCtx_refDDictEPNS_11ZSTD_DCtx_sEPKNS_12ZSTD_DDict_sE(ptr noundef %0, ptr noundef %1)
  %7 = icmp ult i64 %6, -119
  br i1 %7, label %8, label %13

8:                                                ; preds = %2
  %9 = getelementptr inbounds nuw i8, ptr %0, i64 30104
  %10 = load i32, ptr %9, align 8, !tbaa !42
  %11 = icmp eq i32 %10, 0
  %12 = select i1 %11, i64 5, i64 1
  br label %13

13:                                               ; preds = %2, %8
  %.1 = phi i64 [ %6, %2 ], [ %12, %8 ]
  ret i64 %.1
}